; Function Attrs: mustprogress uwtable
define hidden i32 @hb_face_get_glyph_count(ptr noundef %0) local_unnamed_addr #0 {
  %2 = getelementptr inbounds i8, ptr %0, i64 48
  %3 = load atomic i32, ptr %2 monotonic, align 4
  %4 = icmp eq i32 %3, -1
  br i1 %4, label %5, label %_ZNK9hb_face_t14get_num_glyphsEv.exit

5:                                                ; preds = %1
  %6 = tail call noundef i32 @_ZNK9hb_face_t15load_num_glyphsEv(ptr noundef nonnull align 8 dereferenceable(416) %0)
  br label %_ZNK9hb_face_t14get_num_glyphsEv.exit

_ZNK9hb_face_t14get_num_glyphsEv.exit:            ; preds = %1, %5
  %.0.i = phi i32 [ %6, %5 ], [ %3, %1 ]
  ret i32 %.0.i
}